; ModuleID = '49/828.c'
source_filename = "49/828.c"
target datalayout = "e-m:e-p270:32:32-p271:32:32-p272:64:64-i64:64-f80:128-n8:16:32:64-S128"
target triple = "x86_64-pc-linux-gnu"

; Function Attrs: noinline nounwind uwtable
define dso_local i32 @main() #0 {
  %1 = alloca i32, align 4
  %2 = alloca [501 x i8], align 16
  %3 = alloca [501 x i8], align 16
  %4 = alloca [501 x i8], align 16
  %5 = alloca i32, align 4
  %6 = alloca i32, align 4
  %7 = alloca i32, align 4
  %8 = alloca i32, align 4
  store i32 0, i32* %1, align 4
  %9 = bitcast [501 x i8]* %2 to i8*
  call void @llvm.memset.p0i8.i64(i8* align 16 %9, i8 0, i64 501, i1 false)
  %10 = bitcast i8* %9 to <{ i8, [500 x i8] }>*
  %11 = getelementptr inbounds <{ i8, [500 x i8] }>, <{ i8, [500 x i8] }>* %10, i32 0, i32 0
  store i8 48, i8* %11, align 16
  %12 = bitcast [501 x i8]* %3 to i8*
  call void @llvm.memset.p0i8.i64(i8* align 16 %12, i8 0, i64 501, i1 false)
  %13 = bitcast i8* %12 to <{ i8, [500 x i8] }>*
  %14 = getelementptr inbounds <{ i8, [500 x i8] }>, <{ i8, [500 x i8] }>* %13, i32 0, i32 0
  store i8 48, i8* %14, align 16
  %15 = bitcast [501 x i8]* %4 to i8*
  call void @llvm.memset.p0i8.i64(i8* align 16 %15, i8 0, i64 501, i1 false)
  %16 = bitcast i8* %15 to <{ i8, [500 x i8] }>*
  %17 = getelementptr inbounds <{ i8, [500 x i8] }>, <{ i8, [500 x i8] }>* %16, i32 0, i32 0
  store i8 48, i8* %17, align 16
  %18 = getelementptr inbounds [501 x i8], [501 x i8]* %2, i64 0, i64 0
  %19 = call i32 (i8*, ...) bitcast (i32 (...)* @gets to i32 (i8*, ...)*)(i8* %18)
  %20 = getelementptr inbounds [501 x i8], [501 x i8]* %2, i64 0, i64 0
  %21 = call i64 @strlen(i8* %20) #4
  %22 = trunc i64 %21 to i32
  store i32 %22, i32* %5, align 4
  store i32 2, i32* %6, align 4
  br label %23

23:                                               ; preds = %98, %0
  %24 = load i32, i32* %6, align 4
  %25 = load i32, i32* %5, align 4
  %26 = icmp sle i32 %24, %25
  br i1 %26, label %27, label %101

27:                                               ; preds = %23
  store i32 0, i32* %7, align 4
  br label %28

28:                                               ; preds = %94, %27
  %29 = load i32, i32* %7, align 4
  %30 = load i32, i32* %5, align 4
  %31 = load i32, i32* %6, align 4
  %32 = sub nsw i32 %30, %31
  %33 = icmp sle i32 %29, %32
  br i1 %33, label %34, label %97

34:                                               ; preds = %28
  store i32 0, i32* %8, align 4
  br label %35

35:                                               ; preds = %45, %34
  %36 = load i32, i32* %8, align 4
  %37 = icmp sle i32 %36, 500
  br i1 %37, label %38, label %48

38:                                               ; preds = %35
  %39 = load i32, i32* %8, align 4
  %40 = sext i32 %39 to i64
  %41 = getelementptr inbounds [501 x i8], [501 x i8]* %3, i64 0, i64 %40
  store i8 0, i8* %41, align 1
  %42 = load i32, i32* %8, align 4
  %43 = sext i32 %42 to i64
  %44 = getelementptr inbounds [501 x i8], [501 x i8]* %4, i64 0, i64 %43
  store i8 0, i8* %44, align 1
  br label %45

45:                                               ; preds = %38
  %46 = load i32, i32* %8, align 4
  %47 = add nsw i32 %46, 1
  store i32 %47, i32* %8, align 4
  br label %35

48:                                               ; preds = %35
  store i32 0, i32* %8, align 4
  br label %49

49:                                               ; preds = %63, %48
  %50 = load i32, i32* %8, align 4
  %51 = load i32, i32* %6, align 4
  %52 = icmp slt i32 %50, %51
  br i1 %52, label %53, label %66

53:                                               ; preds = %49
  %54 = load i32, i32* %8, align 4
  %55 = load i32, i32* %7, align 4
  %56 = add nsw i32 %54, %55
  %57 = sext i32 %56 to i64
  %58 = getelementptr inbounds [501 x i8], [501 x i8]* %2, i64 0, i64 %57
  %59 = load i8, i8* %58, align 1
  %60 = load i32, i32* %8, align 4
  %61 = sext i32 %60 to i64
  %62 = getelementptr inbounds [501 x i8], [501 x i8]* %3, i64 0, i64 %61
  store i8 %59, i8* %62, align 1
  br label %63

63:                                               ; preds = %53
  %64 = load i32, i32* %8, align 4
  %65 = add nsw i32 %64, 1
  store i32 %65, i32* %8, align 4
  br label %49

66:                                               ; preds = %49
  store i32 0, i32* %8, align 4
  br label %67

67:                                               ; preds = %82, %66
  %68 = load i32, i32* %8, align 4
  %69 = load i32, i32* %6, align 4
  %70 = icmp slt i32 %68, %69
  br i1 %70, label %71, label %85

71:                                               ; preds = %67
  %72 = load i32, i32* %6, align 4
  %73 = load i32, i32* %8, align 4
  %74 = sub nsw i32 %72, %73
  %75 = sub nsw i32 %74, 1
  %76 = sext i32 %75 to i64
  %77 = getelementptr inbounds [501 x i8], [501 x i8]* %3, i64 0, i64 %76
  %78 = load i8, i8* %77, align 1
  %79 = load i32, i32* %8, align 4
  %80 = sext i32 %79 to i64
  %81 = getelementptr inbounds [501 x i8], [501 x i8]* %4, i64 0, i64 %80
  store i8 %78, i8* %81, align 1
  br label %82

82:                                               ; preds = %71
  %83 = load i32, i32* %8, align 4
  %84 = add nsw i32 %83, 1
  store i32 %84, i32* %8, align 4
  br label %67

85:                                               ; preds = %67
  %86 = getelementptr inbounds [501 x i8], [501 x i8]* %3, i64 0, i64 0
  %87 = getelementptr inbounds [501 x i8], [501 x i8]* %4, i64 0, i64 0
  %88 = call i32 @strcmp(i8* %86, i8* %87) #4
  %89 = icmp eq i32 %88, 0
  br i1 %89, label %90, label %93

90:                                               ; preds = %85
  %91 = getelementptr inbounds [501 x i8], [501 x i8]* %3, i64 0, i64 0
  %92 = call i32 @puts(i8* %91)
  br label %93

93:                                               ; preds = %90, %85
  br label %94

94:                                               ; preds = %93
  %95 = load i32, i32* %7, align 4
  %96 = add nsw i32 %95, 1
  store i32 %96, i32* %7, align 4
  br label %28

97:                                               ; preds = %28
  br label %98

98:                                               ; preds = %97
  %99 = load i32, i32* %6, align 4
  %100 = add nsw i32 %99, 1
  store i32 %100, i32* %6, align 4
  br label %23

101:                                              ; preds = %23
  %102 = load i32, i32* %1, align 4
  ret i32 %102
}

; Function Attrs: argmemonly nounwind willreturn
declare void @llvm.memset.p0i8.i64(i8* nocapture writeonly, i8, i64, i1 immarg) #1

declare dso_local i32 @gets(...) #2

; Function Attrs: nounwind readonly
declare dso_local i64 @strlen(i8*) #3

; Function Attrs: nounwind readonly
declare dso_local i32 @strcmp(i8*, i8*) #3

declare dso_local i32 @puts(i8*) #2


!llvm.module.flags = !{!0}
!llvm.ident = !{!1}

!0 = !{i32 1, !"wchar_size", i32 4}
!1 = !{!"clang version 10.0.0-4ubuntu1 "}
